target datalayout = "e-m:e-p270:32:32-p271:32:32-p272:64:64-i64:64-i128:128-f80:128-n8:16:32:64-S128"
target triple = "x86_64-pc-linux-gnu"

@.str.5 = private unnamed_addr constant [2 x i8] c" \00", align 1
@.str.10 = private unnamed_addr constant [6 x i8] c"&amp;\00", align 1
@.str.11 = private unnamed_addr constant [5 x i8] c"&lt;\00", align 1
@.str.12 = private unnamed_addr constant [5 x i8] c"&gt;\00", align 1
@.str.13 = private unnamed_addr constant [8 x i8] c"<br />\0A\00", align 1
@.str.14 = private unnamed_addr constant [7 x i8] c"&quot;\00", align 1
@.str.15 = private unnamed_addr constant [7 x i8] c"&nbsp;\00", align 1

; Function Attrs: nounwind uwtable
define dso_local void @html_escaped_print(ptr noundef %0, ptr noundef %1) #0 {
  %3 = alloca ptr, align 8
  %4 = alloca ptr, align 8
  %5 = alloca ptr, align 8
  %6 = alloca i8, align 1
  store ptr %0, ptr %3, align 8
  store ptr %1, ptr %4, align 8
  call void @llvm.lifetime.start.p0(i64 8, ptr %5) #8
  call void @llvm.lifetime.start.p0(i64 1, ptr %6) #8
  store i8 1, ptr %6, align 1
  %7 = load ptr, ptr %3, align 8
  store ptr %7, ptr %5, align 8
  br label %8

8:                                                ; preds = %54, %2
  %9 = load ptr, ptr %5, align 8
  %10 = load i8, ptr %9, align 1
  %11 = icmp ne i8 %10, 0
  br i1 %11, label %12, label %57

12:                                               ; preds = %8
  %13 = load ptr, ptr %5, align 8
  %14 = load i8, ptr %13, align 1
  %15 = sext i8 %14 to i32
  switch i32 %15, label %41 [
    i32 38, label %16
    i32 60, label %19
    i32 62, label %22
    i32 10, label %25
    i32 34, label %28
    i32 32, label %31
  ]

16:                                               ; preds = %12
  %17 = load ptr, ptr %4, align 8
  %18 = call i32 @fputs(ptr noundef @.str.10, ptr noundef %17)
  br label %47

19:                                               ; preds = %12
  %20 = load ptr, ptr %4, align 8
  %21 = call i32 @fputs(ptr noundef @.str.11, ptr noundef %20)
  br label %47

22:                                               ; preds = %12
  %23 = load ptr, ptr %4, align 8
  %24 = call i32 @fputs(ptr noundef @.str.12, ptr noundef %23)
  br label %47

25:                                               ; preds = %12
  %26 = load ptr, ptr %4, align 8
  %27 = call i32 @fputs(ptr noundef @.str.13, ptr noundef %26)
  br label %47

28:                                               ; preds = %12
  %29 = load ptr, ptr %4, align 8
  %30 = call i32 @fputs(ptr noundef @.str.14, ptr noundef %29)
  br label %47

31:                                               ; preds = %12
  %32 = load i8, ptr %6, align 1, !range !4, !noundef !5
  %33 = trunc i8 %32 to i1
  br i1 %33, label %34, label %37

34:                                               ; preds = %31
  %35 = load ptr, ptr %4, align 8
  %36 = call i32 @fputs(ptr noundef @.str.15, ptr noundef %35)
  br label %40

37:                                               ; preds = %31
  %38 = load ptr, ptr %4, align 8
  %39 = call i32 @fputs(ptr noundef @.str.5, ptr noundef %38)
  br label %40

40:                                               ; preds = %37, %34
  br label %47

41:                                               ; preds = %12
  %42 = load ptr, ptr %5, align 8
  %43 = load i8, ptr %42, align 1
  %44 = sext i8 %43 to i32
  %45 = load ptr, ptr %4, align 8
  %46 = call i32 @fputc(i32 noundef %44, ptr noundef %45)
  br label %47

47:                                               ; preds = %41, %40, %28, %25, %22, %19, %16
  %48 = load ptr, ptr %5, align 8
  %49 = load i8, ptr %48, align 1
  %50 = sext i8 %49 to i32
  %51 = icmp ne i32 %50, 32
  br i1 %51, label %52, label %53

52:                                               ; preds = %47
  store i8 0, ptr %6, align 1
  br label %53

53:                                               ; preds = %52, %47
  br label %54

54:                                               ; preds = %53
  %55 = load ptr, ptr %5, align 8
  %56 = getelementptr inbounds nuw i8, ptr %55, i32 1
  store ptr %56, ptr %5, align 8
  br label %8, !llvm.loop !6

57:                                               ; preds = %8
  call void @llvm.lifetime.end.p0(i64 1, ptr %6) #8
  call void @llvm.lifetime.end.p0(i64 8, ptr %5) #8
  ret void
}