; Function Attrs: nofree nounwind uwtable
define dso_local void @html_escaped_print(ptr noundef readonly captures(none) %0, ptr noundef captures(none) %1) local_unnamed_addr #0 {
  br label %3

3:                                                ; preds = %22, %2
  %.014 = phi ptr [ %0, %2 ], [ %24, %22 ]
  %.0 = phi i1 [ true, %2 ], [ %spec.select, %22 ]
  %4 = load i8, ptr %.014, align 1
  switch i8 %4, label %19 [
    i8 0, label %25
    i8 38, label %5
    i8 60, label %7
    i8 62, label %9
    i8 10, label %11
    i8 34, label %13
    i8 32, label %15
  ]

5:                                                ; preds = %3
  %6 = tail call i64 @fwrite(ptr nonnull @.str.10, i64 5, i64 1, ptr %1)
  br label %22

7:                                                ; preds = %3
  %8 = tail call i64 @fwrite(ptr nonnull @.str.11, i64 4, i64 1, ptr %1)
  br label %22

9:                                                ; preds = %3
  %10 = tail call i64 @fwrite(ptr nonnull @.str.12, i64 4, i64 1, ptr %1)
  br label %22

11:                                               ; preds = %3
  %12 = tail call i64 @fwrite(ptr nonnull @.str.13, i64 7, i64 1, ptr %1)
  br label %22

13:                                               ; preds = %3
  %14 = tail call i64 @fwrite(ptr nonnull @.str.14, i64 6, i64 1, ptr %1)
  br label %22

15:                                               ; preds = %3
  br i1 %.0, label %16, label %18

16:                                               ; preds = %15
  %17 = tail call i64 @fwrite(ptr nonnull @.str.15, i64 6, i64 1, ptr %1)
  br label %22

18:                                               ; preds = %15
  %fputc = tail call i32 @fputc(i32 32, ptr %1)
  br label %22

19:                                               ; preds = %3
  %20 = sext i8 %4 to i32
  %21 = tail call i32 @fputc(i32 noundef %20, ptr noundef %1)
  br label %22

22:                                               ; preds = %16, %18, %19, %13, %11, %9, %7, %5
  %23 = load i8, ptr %.014, align 1
  %.not16 = icmp eq i8 %23, 32
  %spec.select = select i1 %.not16, i1 %.0, i1 false
  %24 = getelementptr inbounds nuw i8, ptr %.014, i64 1
  br label %3, !llvm.loop !4

25:                                               ; preds = %3
  ret void
}